target datalayout = "e-m:e-p270:32:32-p271:32:32-p272:64:64-i64:64-i128:128-f80:128-n8:16:32:64-S128"
target triple = "x86_64-pc-linux-gnu"

%struct.t_nm2type = type { ptr, ptr, double, double, i32, ptr, ptr }

@.str.12 = private unnamed_addr constant [20 x i8] c"; nm2type database\0A\00", align 1
@.str.13 = private unnamed_addr constant [27 x i8] c"%-8s %-8s %8.4f %8.4f %-4d\00", align 1
@.str.14 = private unnamed_addr constant [12 x i8] c" %-5s %6.4f\00", align 1
@.str.15 = private unnamed_addr constant [2 x i8] c"\0A\00", align 1

; Function Attrs: mustprogress nounwind uwtable
define void @_Z12dump_nm2typeP8_IO_FILEiP9t_nm2type(ptr noundef %0, i32 noundef %1, ptr noundef %2) #3 {
  %4 = alloca ptr, align 8
  %5 = alloca i32, align 4
  %6 = alloca ptr, align 8
  %7 = alloca i32, align 4
  %8 = alloca i32, align 4
  store ptr %0, ptr %4, align 8, !tbaa !24
  store i32 %1, ptr %5, align 4, !tbaa !11
  store ptr %2, ptr %6, align 8, !tbaa !13
  call void @llvm.lifetime.start.p0(i64 4, ptr %7) #13
  call void @llvm.lifetime.start.p0(i64 4, ptr %8) #13
  %9 = load ptr, ptr %4, align 8, !tbaa !24
  %10 = call i32 (ptr, ptr, ...) @fprintf(ptr noundef %9, ptr noundef @.str.12) #13
  store i32 0, ptr %7, align 4, !tbaa !11
  br label %11

11:                                               ; preds = %86, %3
  %12 = load i32, ptr %7, align 4, !tbaa !11
  %13 = load i32, ptr %5, align 4, !tbaa !11
  %14 = icmp slt i32 %12, %13
  br i1 %14, label %15, label %89

15:                                               ; preds = %11
  %16 = load ptr, ptr %4, align 8, !tbaa !24
  %17 = load ptr, ptr %6, align 8, !tbaa !13
  %18 = load i32, ptr %7, align 4, !tbaa !11
  %19 = sext i32 %18 to i64
  %20 = getelementptr inbounds %struct.t_nm2type, ptr %17, i64 %19
  %21 = getelementptr inbounds nuw %struct.t_nm2type, ptr %20, i32 0, i32 0
  %22 = load ptr, ptr %21, align 8, !tbaa !40
  %23 = load ptr, ptr %6, align 8, !tbaa !13
  %24 = load i32, ptr %7, align 4, !tbaa !11
  %25 = sext i32 %24 to i64
  %26 = getelementptr inbounds %struct.t_nm2type, ptr %23, i64 %25
  %27 = getelementptr inbounds nuw %struct.t_nm2type, ptr %26, i32 0, i32 1
  %28 = load ptr, ptr %27, align 8, !tbaa !41
  %29 = load ptr, ptr %6, align 8, !tbaa !13
  %30 = load i32, ptr %7, align 4, !tbaa !11
  %31 = sext i32 %30 to i64
  %32 = getelementptr inbounds %struct.t_nm2type, ptr %29, i64 %31
  %33 = getelementptr inbounds nuw %struct.t_nm2type, ptr %32, i32 0, i32 2
  %34 = load double, ptr %33, align 8, !tbaa !43
  %35 = load ptr, ptr %6, align 8, !tbaa !13
  %36 = load i32, ptr %7, align 4, !tbaa !11
  %37 = sext i32 %36 to i64
  %38 = getelementptr inbounds %struct.t_nm2type, ptr %35, i64 %37
  %39 = getelementptr inbounds nuw %struct.t_nm2type, ptr %38, i32 0, i32 3
  %40 = load double, ptr %39, align 8, !tbaa !44
  %41 = load ptr, ptr %6, align 8, !tbaa !13
  %42 = load i32, ptr %7, align 4, !tbaa !11
  %43 = sext i32 %42 to i64
  %44 = getelementptr inbounds %struct.t_nm2type, ptr %41, i64 %43
  %45 = getelementptr inbounds nuw %struct.t_nm2type, ptr %44, i32 0, i32 4
  %46 = load i32, ptr %45, align 8, !tbaa !45
  %47 = call i32 (ptr, ptr, ...) @fprintf(ptr noundef %16, ptr noundef @.str.13, ptr noundef %22, ptr noundef %28, double noundef %34, double noundef %40, i32 noundef %46) #13
  store i32 0, ptr %8, align 4, !tbaa !11
  br label %48

48:                                               ; preds = %80, %15
  %49 = load i32, ptr %8, align 4, !tbaa !11
  %50 = load ptr, ptr %6, align 8, !tbaa !13
  %51 = load i32, ptr %7, align 4, !tbaa !11
  %52 = sext i32 %51 to i64
  %53 = getelementptr inbounds %struct.t_nm2type, ptr %50, i64 %52
  %54 = getelementptr inbounds nuw %struct.t_nm2type, ptr %53, i32 0, i32 4
  %55 = load i32, ptr %54, align 8, !tbaa !45
  %56 = icmp slt i32 %49, %55
  br i1 %56, label %57, label %83

57:                                               ; preds = %48
  %58 = load ptr, ptr %4, align 8, !tbaa !24
  %59 = load ptr, ptr %6, align 8, !tbaa !13
  %60 = load i32, ptr %7, align 4, !tbaa !11
  %61 = sext i32 %60 to i64
  %62 = getelementptr inbounds %struct.t_nm2type, ptr %59, i64 %61
  %63 = getelementptr inbounds nuw %struct.t_nm2type, ptr %62, i32 0, i32 5
  %64 = load ptr, ptr %63, align 8, !tbaa !46
  %65 = load i32, ptr %8, align 4, !tbaa !11
  %66 = sext i32 %65 to i64
  %67 = getelementptr inbounds ptr, ptr %64, i64 %66
  %68 = load ptr, ptr %67, align 8, !tbaa !37
  %69 = load ptr, ptr %6, align 8, !tbaa !13
  %70 = load i32, ptr %7, align 4, !tbaa !11
  %71 = sext i32 %70 to i64
  %72 = getelementptr inbounds %struct.t_nm2type, ptr %69, i64 %71
  %73 = getelementptr inbounds nuw %struct.t_nm2type, ptr %72, i32 0, i32 6
  %74 = load ptr, ptr %73, align 8, !tbaa !30
  %75 = load i32, ptr %8, align 4, !tbaa !11
  %76 = sext i32 %75 to i64
  %77 = getelementptr inbounds double, ptr %74, i64 %76
  %78 = load double, ptr %77, align 8, !tbaa !42
  %79 = call i32 (ptr, ptr, ...) @fprintf(ptr noundef %58, ptr noundef @.str.14, ptr noundef %68, double noundef %78) #13
  br label %80

80:                                               ; preds = %57
  %81 = load i32, ptr %8, align 4, !tbaa !11
  %82 = add nsw i32 %81, 1
  store i32 %82, ptr %8, align 4, !tbaa !11
  br label %48, !llvm.loop !117

83:                                               ; preds = %48
  %84 = load ptr, ptr %4, align 8, !tbaa !24
  %85 = call i32 (ptr, ptr, ...) @fprintf(ptr noundef %84, ptr noundef @.str.15) #13
  br label %86

86:                                               ; preds = %83
  %87 = load i32, ptr %7, align 4, !tbaa !11
  %88 = add nsw i32 %87, 1
  store i32 %88, ptr %7, align 4, !tbaa !11
  br label %11, !llvm.loop !118

89:                                               ; preds = %11
  call void @llvm.lifetime.end.p0(i64 4, ptr %8) #13
  call void @llvm.lifetime.end.p0(i64 4, ptr %7) #13
  ret void
}