; Function Attrs: mustprogress nofree nounwind uwtable
define void @_Z12dump_nm2typeP8_IO_FILEiP9t_nm2type(ptr noundef captures(none) %0, i32 noundef %1, ptr noundef readonly captures(none) %2) local_unnamed_addr #12 {
  %4 = tail call i64 @fwrite(ptr nonnull @.str.12, i64 19, i64 1, ptr %0)
  %5 = icmp sgt i32 %1, 0
  br i1 %5, label %.lr.ph30.preheader, label %._crit_edge31

.lr.ph30.preheader:                               ; preds = %3
  %wide.trip.count = zext nneg i32 %1 to i64
  br label %.lr.ph30

.lr.ph30:                                         ; preds = %.lr.ph30.preheader, %._crit_edge
  %indvars.iv33 = phi i64 [ 0, %.lr.ph30.preheader ], [ %indvars.iv.next34, %._crit_edge ]
  %6 = getelementptr inbounds nuw %struct.t_nm2type, ptr %2, i64 %indvars.iv33
  %7 = load ptr, ptr %6, align 8, !tbaa !35
  %8 = getelementptr inbounds nuw i8, ptr %6, i64 8
  %9 = load ptr, ptr %8, align 8, !tbaa !36
  %10 = getelementptr inbounds nuw i8, ptr %6, i64 16
  %11 = load double, ptr %10, align 8, !tbaa !38
  %12 = getelementptr inbounds nuw i8, ptr %6, i64 24
  %13 = load double, ptr %12, align 8, !tbaa !39
  %14 = getelementptr inbounds nuw i8, ptr %6, i64 32
  %15 = load i32, ptr %14, align 8, !tbaa !40
  %16 = tail call i32 (ptr, ptr, ...) @fprintf(ptr noundef %0, ptr noundef nonnull @.str.13, ptr noundef %7, ptr noundef %9, double noundef %11, double noundef %13, i32 noundef %15) #19
  %17 = load i32, ptr %14, align 8, !tbaa !40
  %18 = icmp sgt i32 %17, 0
  br i1 %18, label %.lr.ph, label %._crit_edge

.lr.ph:                                           ; preds = %.lr.ph30
  %19 = getelementptr inbounds nuw i8, ptr %6, i64 40
  %20 = getelementptr inbounds nuw i8, ptr %6, i64 48
  br label %21

21:                                               ; preds = %.lr.ph, %21
  %indvars.iv = phi i64 [ 0, %.lr.ph ], [ %indvars.iv.next, %21 ]
  %22 = load ptr, ptr %19, align 8, !tbaa !41
  %23 = getelementptr inbounds nuw ptr, ptr %22, i64 %indvars.iv
  %24 = load ptr, ptr %23, align 8, !tbaa !33
  %25 = load ptr, ptr %20, align 8, !tbaa !28
  %26 = getelementptr inbounds nuw double, ptr %25, i64 %indvars.iv
  %27 = load double, ptr %26, align 8, !tbaa !37
  %28 = tail call i32 (ptr, ptr, ...) @fprintf(ptr noundef %0, ptr noundef nonnull @.str.14, ptr noundef %24, double noundef %27) #19
  %indvars.iv.next = add nuw nsw i64 %indvars.iv, 1
  %29 = load i32, ptr %14, align 8, !tbaa !40
  %30 = sext i32 %29 to i64
  %31 = icmp slt i64 %indvars.iv.next, %30
  br i1 %31, label %21, label %._crit_edge, !llvm.loop !48

._crit_edge:                                      ; preds = %21, %.lr.ph30
  %fputc = tail call i32 @fputc(i32 10, ptr %0)
  %indvars.iv.next34 = add nuw nsw i64 %indvars.iv33, 1
  %exitcond.not = icmp eq i64 %indvars.iv.next34, %wide.trip.count
  br i1 %exitcond.not, label %._crit_edge31, label %.lr.ph30, !llvm.loop !49

._crit_edge31:                                    ; preds = %._crit_edge, %3
  ret void
}